target datalayout = "e-m:e-p270:32:32-p271:32:32-p272:64:64-i64:64-i128:128-f80:128-n8:16:32:64-S128"
target triple = "x86_64-pc-linux-gnu"

; Function Attrs: nounwind sspstrong uwtable
define hidden void @FLAC__window_triangle(ptr noundef %0, i32 noundef %1) #0 {
  %3 = alloca ptr, align 8
  %4 = alloca i32, align 4
  %5 = alloca i32, align 4
  store ptr %0, ptr %3, align 8, !tbaa !3
  store i32 %1, ptr %4, align 4, !tbaa !8
  call void @llvm.lifetime.start.p0(i64 4, ptr %5) #4
  %6 = load i32, ptr %4, align 4, !tbaa !8
  %7 = and i32 %6, 1
  %8 = icmp ne i32 %7, 0
  br i1 %8, label %9, label %57

9:                                                ; preds = %2
  store i32 1, ptr %5, align 4, !tbaa !8
  br label %10

10:                                               ; preds = %29, %9
  %11 = load i32, ptr %5, align 4, !tbaa !8
  %12 = load i32, ptr %4, align 4, !tbaa !8
  %13 = add nsw i32 %12, 1
  %14 = sdiv i32 %13, 2
  %15 = icmp sle i32 %11, %14
  br i1 %15, label %16, label %32

16:                                               ; preds = %10
  %17 = load i32, ptr %5, align 4, !tbaa !8
  %18 = sitofp i32 %17 to float
  %19 = fmul reassoc nsz arcp float 2.000000e+00, %18
  %20 = load i32, ptr %4, align 4, !tbaa !8
  %21 = sitofp i32 %20 to float
  %22 = fadd reassoc nsz arcp float %21, 1.000000e+00
  %23 = fdiv reassoc nsz arcp float %19, %22
  %24 = load ptr, ptr %3, align 8, !tbaa !3
  %25 = load i32, ptr %5, align 4, !tbaa !8
  %26 = sub nsw i32 %25, 1
  %27 = sext i32 %26 to i64
  %28 = getelementptr inbounds float, ptr %24, i64 %27
  store float %23, ptr %28, align 4, !tbaa !10
  br label %29

29:                                               ; preds = %16
  %30 = load i32, ptr %5, align 4, !tbaa !8
  %31 = add nsw i32 %30, 1
  store i32 %31, ptr %5, align 4, !tbaa !8
  br label %10, !llvm.loop !30

32:                                               ; preds = %10
  br label %33

33:                                               ; preds = %53, %32
  %34 = load i32, ptr %5, align 4, !tbaa !8
  %35 = load i32, ptr %4, align 4, !tbaa !8
  %36 = icmp sle i32 %34, %35
  br i1 %36, label %37, label %56

37:                                               ; preds = %33
  %38 = load i32, ptr %4, align 4, !tbaa !8
  %39 = load i32, ptr %5, align 4, !tbaa !8
  %40 = sub nsw i32 %38, %39
  %41 = add nsw i32 %40, 1
  %42 = mul nsw i32 2, %41
  %43 = sitofp i32 %42 to float
  %44 = load i32, ptr %4, align 4, !tbaa !8
  %45 = sitofp i32 %44 to float
  %46 = fadd reassoc nsz arcp float %45, 1.000000e+00
  %47 = fdiv reassoc nsz arcp float %43, %46
  %48 = load ptr, ptr %3, align 8, !tbaa !3
  %49 = load i32, ptr %5, align 4, !tbaa !8
  %50 = sub nsw i32 %49, 1
  %51 = sext i32 %50 to i64
  %52 = getelementptr inbounds float, ptr %48, i64 %51
  store float %47, ptr %52, align 4, !tbaa !10
  br label %53

53:                                               ; preds = %37
  %54 = load i32, ptr %5, align 4, !tbaa !8
  %55 = add nsw i32 %54, 1
  store i32 %55, ptr %5, align 4, !tbaa !8
  br label %33, !llvm.loop !31

56:                                               ; preds = %33
  br label %104

57:                                               ; preds = %2
  store i32 1, ptr %5, align 4, !tbaa !8
  br label %58

58:                                               ; preds = %76, %57
  %59 = load i32, ptr %5, align 4, !tbaa !8
  %60 = load i32, ptr %4, align 4, !tbaa !8
  %61 = sdiv i32 %60, 2
  %62 = icmp sle i32 %59, %61
  br i1 %62, label %63, label %79

63:                                               ; preds = %58
  %64 = load i32, ptr %5, align 4, !tbaa !8
  %65 = sitofp i32 %64 to float
  %66 = fmul reassoc nsz arcp float 2.000000e+00, %65
  %67 = load i32, ptr %4, align 4, !tbaa !8
  %68 = sitofp i32 %67 to float
  %69 = fadd reassoc nsz arcp float %68, 1.000000e+00
  %70 = fdiv reassoc nsz arcp float %66, %69
  %71 = load ptr, ptr %3, align 8, !tbaa !3
  %72 = load i32, ptr %5, align 4, !tbaa !8
  %73 = sub nsw i32 %72, 1
  %74 = sext i32 %73 to i64
  %75 = getelementptr inbounds float, ptr %71, i64 %74
  store float %70, ptr %75, align 4, !tbaa !10
  br label %76

76:                                               ; preds = %63
  %77 = load i32, ptr %5, align 4, !tbaa !8
  %78 = add nsw i32 %77, 1
  store i32 %78, ptr %5, align 4, !tbaa !8
  br label %58, !llvm.loop !32

79:                                               ; preds = %58
  br label %80

80:                                               ; preds = %100, %79
  %81 = load i32, ptr %5, align 4, !tbaa !8
  %82 = load i32, ptr %4, align 4, !tbaa !8
  %83 = icmp sle i32 %81, %82
  br i1 %83, label %84, label %103

84:                                               ; preds = %80
  %85 = load i32, ptr %4, align 4, !tbaa !8
  %86 = load i32, ptr %5, align 4, !tbaa !8
  %87 = sub nsw i32 %85, %86
  %88 = add nsw i32 %87, 1
  %89 = mul nsw i32 2, %88
  %90 = sitofp i32 %89 to float
  %91 = load i32, ptr %4, align 4, !tbaa !8
  %92 = sitofp i32 %91 to float
  %93 = fadd reassoc nsz arcp float %92, 1.000000e+00
  %94 = fdiv reassoc nsz arcp float %90, %93
  %95 = load ptr, ptr %3, align 8, !tbaa !3
  %96 = load i32, ptr %5, align 4, !tbaa !8
  %97 = sub nsw i32 %96, 1
  %98 = sext i32 %97 to i64
  %99 = getelementptr inbounds float, ptr %95, i64 %98
  store float %94, ptr %99, align 4, !tbaa !10
  br label %100

100:                                              ; preds = %84
  %101 = load i32, ptr %5, align 4, !tbaa !8
  %102 = add nsw i32 %101, 1
  store i32 %102, ptr %5, align 4, !tbaa !8
  br label %80, !llvm.loop !33

103:                                              ; preds = %80
  br label %104

104:                                              ; preds = %103, %56
  call void @llvm.lifetime.end.p0(i64 4, ptr %5) #4
  ret void
}