; Function Attrs: nofree norecurse nosync nounwind sspstrong memory(argmem: write) uwtable
define hidden void @FLAC__window_triangle(ptr noundef writeonly captures(none) %0, i32 noundef %1) local_unnamed_addr #0 {
  %3 = and i32 %1, 1
  %.not = icmp eq i32 %3, 0
  br i1 %.not, label %.preheader36, label %.preheader39

.preheader39:                                     ; preds = %2
  %4 = add nsw i32 %1, 1
  %5 = ashr exact i32 %4, 1
  %invariant.gep = getelementptr i8, ptr %0, i64 -4
  %.not3440 = icmp slt i32 %5, 1
  br i1 %.not3440, label %.preheader37, label %.lr.ph

.lr.ph:                                           ; preds = %.preheader39
  %6 = sitofp i32 %1 to float
  %7 = fadd reassoc nsz arcp float %6, 1.000000e+00
  %8 = add nuw nsw i32 %5, 1
  %wide.trip.count = zext nneg i32 %8 to i64
  %9 = fdiv reassoc nsz arcp float 1.000000e+00, %7
  br label %19

.preheader36:                                     ; preds = %2
  %10 = ashr exact i32 %1, 1
  %invariant.gep47 = getelementptr i8, ptr %0, i64 -4
  %.not3249 = icmp slt i32 %10, 1
  br i1 %.not3249, label %.preheader, label %.lr.ph51

.lr.ph51:                                         ; preds = %.preheader36
  %11 = uitofp nneg i32 %1 to float
  %12 = fadd reassoc nsz arcp float %11, 1.000000e+00
  %13 = add nuw nsw i32 %10, 1
  %wide.trip.count69 = zext nneg i32 %13 to i64
  %14 = fdiv reassoc nsz arcp float 1.000000e+00, %12
  br label %36

.preheader37:                                     ; preds = %19, %.preheader39
  %.0.lcssa = phi i32 [ 1, %.preheader39 ], [ %8, %19 ]
  %.not3544 = icmp sgt i32 %.0.lcssa, %1
  br i1 %.not3544, label %.loopexit, label %.lr.ph46

.lr.ph46:                                         ; preds = %.preheader37
  %15 = sitofp i32 %1 to float
  %16 = fadd reassoc nsz arcp float %15, 1.000000e+00
  %17 = zext nneg i32 %.0.lcssa to i64
  %wide.trip.count64 = zext i32 %4 to i64
  %18 = fdiv reassoc nsz arcp float 1.000000e+00, %16
  br label %24

19:                                               ; preds = %.lr.ph, %19
  %indvars.iv = phi i64 [ 1, %.lr.ph ], [ %indvars.iv.next, %19 ]
  %20 = trunc nuw nsw i64 %indvars.iv to i32
  %21 = uitofp nneg i32 %20 to float
  %22 = fmul reassoc nsz arcp float %21, 2.000000e+00
  %23 = fmul reassoc nsz arcp float %22, %9
  %gep = getelementptr float, ptr %invariant.gep, i64 %indvars.iv
  store float %23, ptr %gep, align 4, !tbaa !3
  %indvars.iv.next = add nuw nsw i64 %indvars.iv, 1
  %exitcond.not = icmp eq i64 %indvars.iv.next, %wide.trip.count
  br i1 %exitcond.not, label %.preheader37, label %19, !llvm.loop !25

24:                                               ; preds = %.lr.ph46, %24
  %indvars.iv61 = phi i64 [ %17, %.lr.ph46 ], [ %indvars.iv.next62, %24 ]
  %25 = trunc i64 %indvars.iv61 to i32
  %26 = sub i32 %1, %25
  %27 = shl i32 %26, 1
  %28 = add i32 %27, 2
  %29 = sitofp i32 %28 to float
  %30 = fmul reassoc nsz arcp float %29, %18
  %gep43 = getelementptr float, ptr %invariant.gep, i64 %indvars.iv61
  store float %30, ptr %gep43, align 4, !tbaa !3
  %indvars.iv.next62 = add nuw nsw i64 %indvars.iv61, 1
  %exitcond65.not = icmp eq i64 %indvars.iv.next62, %wide.trip.count64
  br i1 %exitcond65.not, label %.loopexit, label %24, !llvm.loop !26

.preheader:                                       ; preds = %36, %.preheader36
  %.2.lcssa = phi i32 [ 1, %.preheader36 ], [ %13, %36 ]
  %.not3355 = icmp sgt i32 %.2.lcssa, %1
  br i1 %.not3355, label %.loopexit, label %.lr.ph57

.lr.ph57:                                         ; preds = %.preheader
  %31 = sitofp i32 %1 to float
  %32 = fadd reassoc nsz arcp float %31, 1.000000e+00
  %33 = zext nneg i32 %.2.lcssa to i64
  %34 = or disjoint i32 %1, 1
  %wide.trip.count74 = zext i32 %34 to i64
  %35 = fdiv reassoc nsz arcp float 1.000000e+00, %32
  br label %41

36:                                               ; preds = %.lr.ph51, %36
  %indvars.iv66 = phi i64 [ 1, %.lr.ph51 ], [ %indvars.iv.next67, %36 ]
  %37 = trunc nuw nsw i64 %indvars.iv66 to i32
  %38 = uitofp nneg i32 %37 to float
  %39 = fmul reassoc nsz arcp float %38, 2.000000e+00
  %40 = fmul reassoc nsz arcp float %39, %14
  %gep48 = getelementptr float, ptr %invariant.gep47, i64 %indvars.iv66
  store float %40, ptr %gep48, align 4, !tbaa !3
  %indvars.iv.next67 = add nuw nsw i64 %indvars.iv66, 1
  %exitcond70.not = icmp eq i64 %indvars.iv.next67, %wide.trip.count69
  br i1 %exitcond70.not, label %.preheader, label %36, !llvm.loop !27

41:                                               ; preds = %.lr.ph57, %41
  %indvars.iv71 = phi i64 [ %33, %.lr.ph57 ], [ %indvars.iv.next72, %41 ]
  %42 = trunc i64 %indvars.iv71 to i32
  %43 = sub i32 %1, %42
  %44 = shl i32 %43, 1
  %45 = add i32 %44, 2
  %46 = sitofp i32 %45 to float
  %47 = fmul reassoc nsz arcp float %46, %35
  %gep54 = getelementptr float, ptr %invariant.gep47, i64 %indvars.iv71
  store float %47, ptr %gep54, align 4, !tbaa !3
  %indvars.iv.next72 = add nuw nsw i64 %indvars.iv71, 1
  %exitcond75.not = icmp eq i64 %indvars.iv.next72, %wide.trip.count74
  br i1 %exitcond75.not, label %.loopexit, label %41, !llvm.loop !28

.loopexit:                                        ; preds = %24, %41, %.preheader37, %.preheader
  ret void
}